; Function Attrs: nounwind uwtable
define void @Dch_ClassesCollectConst1Group(ptr noundef readonly captures(none) %0, ptr noundef readonly captures(none) %1, i32 noundef %2, ptr noundef captures(none) initializes((4, 8)) %3) local_unnamed_addr #0 {
  %5 = getelementptr inbounds nuw i8, ptr %3, i64 4
  store i32 0, ptr %5, align 4, !tbaa !24
  %6 = getelementptr inbounds nuw i8, ptr %1, i64 36
  %7 = load i32, ptr %6, align 4, !tbaa !38
  %8 = add nsw i32 %7, %2
  %9 = load ptr, ptr %0, align 8, !tbaa !3
  %10 = getelementptr i8, ptr %9, i64 32
  %.val = load ptr, ptr %10, align 8, !tbaa !14
  %11 = getelementptr i8, ptr %.val, i64 4
  %.val.val = load i32, ptr %11, align 4, !tbaa !24
  %12 = tail call noundef i32 @llvm.smin.i32(i32 %8, i32 %.val.val)
  %13 = icmp slt i32 %7, %12
  br i1 %13, label %.lr.ph.split.preheader, label %._crit_edge

.lr.ph.split.preheader:                           ; preds = %4
  %.phi.trans.insert.i = getelementptr inbounds nuw i8, ptr %3, i64 8
  %14 = sext i32 %7 to i64
  %wide.trip.count = sext i32 %12 to i64
  br label %.lr.ph.split

.lr.ph.split:                                     ; preds = %.lr.ph.split.preheader, %Aig_ManObj.exit.thread
  %15 = phi i32 [ 0, %.lr.ph.split.preheader ], [ %59, %Aig_ManObj.exit.thread ]
  %indvars.iv = phi i64 [ %14, %.lr.ph.split.preheader ], [ %indvars.iv.next, %Aig_ManObj.exit.thread ]
  %16 = load ptr, ptr %0, align 8, !tbaa !3
  %17 = getelementptr i8, ptr %16, i64 32
  %.val16 = load ptr, ptr %17, align 8, !tbaa !14
  %.not.i = icmp eq ptr %.val16, null
  br i1 %.not.i, label %Aig_ManObj.exit.thread, label %Aig_ManObj.exit

Aig_ManObj.exit:                                  ; preds = %.lr.ph.split
  %18 = getelementptr i8, ptr %.val16, i64 8
  %.val.i = load ptr, ptr %18, align 8, !tbaa !29
  %19 = getelementptr inbounds ptr, ptr %.val.i, i64 %indvars.iv
  %20 = load ptr, ptr %19, align 8, !tbaa !51
  %.not = icmp eq ptr %20, null
  br i1 %.not, label %Aig_ManObj.exit.thread, label %21

21:                                               ; preds = %Aig_ManObj.exit
  %22 = getelementptr i8, ptr %16, i64 256
  %.val.i17 = load ptr, ptr %22, align 8, !tbaa !52
  %.not.i.i = icmp eq ptr %.val.i17, null
  br i1 %.not.i.i, label %Dch_ObjIsConst1Cand.exit, label %23

23:                                               ; preds = %21
  %24 = getelementptr inbounds nuw i8, ptr %20, i64 36
  %25 = load i32, ptr %24, align 4, !tbaa !38
  %26 = sext i32 %25 to i64
  %27 = getelementptr inbounds ptr, ptr %.val.i17, i64 %26
  %28 = load ptr, ptr %27, align 8, !tbaa !41
  br label %Dch_ObjIsConst1Cand.exit

Dch_ObjIsConst1Cand.exit:                         ; preds = %21, %23
  %29 = phi ptr [ %28, %23 ], [ null, %21 ]
  %30 = getelementptr i8, ptr %16, i64 48
  %.val3.i = load ptr, ptr %30, align 8, !tbaa !53
  %.not19 = icmp eq ptr %29, %.val3.i
  br i1 %.not19, label %31, label %Aig_ManObj.exit.thread

31:                                               ; preds = %Dch_ObjIsConst1Cand.exit
  %32 = load i32, ptr %3, align 8, !tbaa !28
  %33 = icmp eq i32 %15, %32
  br i1 %33, label %34, label %.Vec_PtrGrow.exit11_crit_edge.i

.Vec_PtrGrow.exit11_crit_edge.i:                  ; preds = %31
  %.pre.i = load ptr, ptr %.phi.trans.insert.i, align 8, !tbaa !29
  br label %Vec_PtrPush.exit

34:                                               ; preds = %31
  %35 = icmp slt i32 %15, 16
  br i1 %35, label %36, label %43

36:                                               ; preds = %34
  %37 = load ptr, ptr %.phi.trans.insert.i, align 8, !tbaa !29
  %.not9.i.i = icmp eq ptr %37, null
  br i1 %.not9.i.i, label %40, label %38

38:                                               ; preds = %36
  %39 = tail call dereferenceable_or_null(128) ptr @realloc(ptr noundef nonnull %37, i64 noundef 128) #21
  br label %Vec_PtrGrow.exit.i

40:                                               ; preds = %36
  %41 = tail call noalias dereferenceable_or_null(128) ptr @malloc(i64 noundef 128) #18
  br label %Vec_PtrGrow.exit.i

Vec_PtrGrow.exit.i:                               ; preds = %40, %38
  %42 = phi ptr [ %39, %38 ], [ %41, %40 ]
  store ptr %42, ptr %.phi.trans.insert.i, align 8, !tbaa !29
  store i32 16, ptr %3, align 8, !tbaa !28
  br label %Vec_PtrPush.exit

43:                                               ; preds = %34
  %44 = shl nuw nsw i32 %15, 1
  %45 = load ptr, ptr %.phi.trans.insert.i, align 8, !tbaa !29
  %.not9.i10.i = icmp eq ptr %45, null
  %46 = zext nneg i32 %44 to i64
  %47 = shl nuw nsw i64 %46, 3
  br i1 %.not9.i10.i, label %50, label %48

48:                                               ; preds = %43
  %49 = tail call ptr @realloc(ptr noundef nonnull %45, i64 noundef %47) #21
  br label %52

50:                                               ; preds = %43
  %51 = tail call noalias ptr @malloc(i64 noundef %47) #18
  br label %52

52:                                               ; preds = %50, %48
  %53 = phi ptr [ %49, %48 ], [ %51, %50 ]
  store ptr %53, ptr %.phi.trans.insert.i, align 8, !tbaa !29
  store i32 %44, ptr %3, align 8, !tbaa !28
  br label %Vec_PtrPush.exit

Vec_PtrPush.exit:                                 ; preds = %.Vec_PtrGrow.exit11_crit_edge.i, %Vec_PtrGrow.exit.i, %52
  %54 = phi ptr [ %.pre.i, %.Vec_PtrGrow.exit11_crit_edge.i ], [ %53, %52 ], [ %42, %Vec_PtrGrow.exit.i ]
  %55 = load i32, ptr %5, align 4, !tbaa !24
  %56 = add nsw i32 %55, 1
  store i32 %56, ptr %5, align 4, !tbaa !24
  %57 = sext i32 %55 to i64
  %58 = getelementptr inbounds ptr, ptr %54, i64 %57
  store ptr %20, ptr %58, align 8, !tbaa !51
  br label %Aig_ManObj.exit.thread

Aig_ManObj.exit.thread:                           ; preds = %.lr.ph.split, %Aig_ManObj.exit, %Dch_ObjIsConst1Cand.exit, %Vec_PtrPush.exit
  %59 = phi i32 [ %15, %.lr.ph.split ], [ %15, %Aig_ManObj.exit ], [ %15, %Dch_ObjIsConst1Cand.exit ], [ %56, %Vec_PtrPush.exit ]
  %indvars.iv.next = add nsw i64 %indvars.iv, 1
  %exitcond.not = icmp eq i64 %indvars.iv.next, %wide.trip.count
  br i1 %exitcond.not, label %._crit_edge, label %.lr.ph.split, !llvm.loop !67

._crit_edge:                                      ; preds = %Aig_ManObj.exit.thread, %4
  ret void
}